; ModuleID = '42/542.c'
source_filename = "42/542.c"
target datalayout = "e-m:e-p270:32:32-p271:32:32-p272:64:64-i64:64-f80:128-n8:16:32:64-S128"
target triple = "x86_64-pc-linux-gnu"

@.str = private unnamed_addr constant [3 x i8] c"%d\00", align 1
@.str.1 = private unnamed_addr constant [4 x i8] c" %d\00", align 1

; Function Attrs: noinline nounwind uwtable
define dso_local void @main() #0 {
  %1 = alloca [100000 x i32], align 16
  %2 = alloca i32*, align 8
  %3 = alloca i32, align 4
  %4 = alloca i32, align 4
  %5 = alloca i32*, align 8
  %6 = getelementptr inbounds [100000 x i32], [100000 x i32]* %1, i64 0, i64 0
  store i32* %6, i32** %2, align 8
  %7 = call i32 (i8*, ...) @__isoc99_scanf(i8* getelementptr inbounds ([3 x i8], [3 x i8]* @.str, i64 0, i64 0), i32* %3)
  %8 = getelementptr inbounds [100000 x i32], [100000 x i32]* %1, i64 0, i64 0
  store i32* %8, i32** %2, align 8
  br label %9

9:                                                ; preds = %19, %0
  %10 = load i32*, i32** %2, align 8
  %11 = getelementptr inbounds [100000 x i32], [100000 x i32]* %1, i64 0, i64 0
  %12 = load i32, i32* %3, align 4
  %13 = sext i32 %12 to i64
  %14 = getelementptr inbounds i32, i32* %11, i64 %13
  %15 = icmp ult i32* %10, %14
  br i1 %15, label %16, label %22

16:                                               ; preds = %9
  %17 = load i32*, i32** %2, align 8
  %18 = call i32 (i8*, ...) @__isoc99_scanf(i8* getelementptr inbounds ([3 x i8], [3 x i8]* @.str, i64 0, i64 0), i32* %17)
  br label %19

19:                                               ; preds = %16
  %20 = load i32*, i32** %2, align 8
  %21 = getelementptr inbounds i32, i32* %20, i32 1
  store i32* %21, i32** %2, align 8
  br label %9

22:                                               ; preds = %9
  %23 = call i32 (i8*, ...) @__isoc99_scanf(i8* getelementptr inbounds ([3 x i8], [3 x i8]* @.str, i64 0, i64 0), i32* %4)
  %24 = getelementptr inbounds [100000 x i32], [100000 x i32]* %1, i64 0, i64 0
  store i32* %24, i32** %2, align 8
  br label %25

25:                                               ; preds = %61, %22
  %26 = load i32*, i32** %2, align 8
  %27 = getelementptr inbounds [100000 x i32], [100000 x i32]* %1, i64 0, i64 0
  %28 = load i32, i32* %3, align 4
  %29 = sext i32 %28 to i64
  %30 = getelementptr inbounds i32, i32* %27, i64 %29
  %31 = icmp ult i32* %26, %30
  br i1 %31, label %32, label %64

32:                                               ; preds = %25
  %33 = load i32*, i32** %2, align 8
  %34 = load i32, i32* %33, align 4
  %35 = load i32, i32* %4, align 4
  %36 = icmp eq i32 %34, %35
  br i1 %36, label %37, label %60

37:                                               ; preds = %32
  %38 = load i32*, i32** %2, align 8
  store i32* %38, i32** %5, align 8
  br label %39

39:                                               ; preds = %52, %37
  %40 = load i32*, i32** %5, align 8
  %41 = getelementptr inbounds [100000 x i32], [100000 x i32]* %1, i64 0, i64 0
  %42 = load i32, i32* %3, align 4
  %43 = sext i32 %42 to i64
  %44 = getelementptr inbounds i32, i32* %41, i64 %43
  %45 = getelementptr inbounds i32, i32* %44, i64 -1
  %46 = icmp ult i32* %40, %45
  br i1 %46, label %47, label %55

47:                                               ; preds = %39
  %48 = load i32*, i32** %5, align 8
  %49 = getelementptr inbounds i32, i32* %48, i64 1
  %50 = load i32, i32* %49, align 4
  %51 = load i32*, i32** %5, align 8
  store i32 %50, i32* %51, align 4
  br label %52

52:                                               ; preds = %47
  %53 = load i32*, i32** %5, align 8
  %54 = getelementptr inbounds i32, i32* %53, i32 1
  store i32* %54, i32** %5, align 8
  br label %39

55:                                               ; preds = %39
  %56 = load i32, i32* %3, align 4
  %57 = add nsw i32 %56, -1
  store i32 %57, i32* %3, align 4
  %58 = load i32*, i32** %2, align 8
  %59 = getelementptr inbounds i32, i32* %58, i32 -1
  store i32* %59, i32** %2, align 8
  br label %60

60:                                               ; preds = %55, %32
  br label %61

61:                                               ; preds = %60
  %62 = load i32*, i32** %2, align 8
  %63 = getelementptr inbounds i32, i32* %62, i32 1
  store i32* %63, i32** %2, align 8
  br label %25

64:                                               ; preds = %25
  %65 = getelementptr inbounds [100000 x i32], [100000 x i32]* %1, i64 0, i64 0
  %66 = load i32, i32* %65, align 16
  %67 = call i32 (i8*, ...) @printf(i8* getelementptr inbounds ([3 x i8], [3 x i8]* @.str, i64 0, i64 0), i32 %66)
  %68 = getelementptr inbounds [100000 x i32], [100000 x i32]* %1, i64 0, i64 0
  %69 = getelementptr inbounds i32, i32* %68, i64 1
  store i32* %69, i32** %2, align 8
  br label %70

70:                                               ; preds = %81, %64
  %71 = load i32*, i32** %2, align 8
  %72 = getelementptr inbounds [100000 x i32], [100000 x i32]* %1, i64 0, i64 0
  %73 = load i32, i32* %3, align 4
  %74 = sext i32 %73 to i64
  %75 = getelementptr inbounds i32, i32* %72, i64 %74
  %76 = icmp ult i32* %71, %75
  br i1 %76, label %77, label %84

77:                                               ; preds = %70
  %78 = load i32*, i32** %2, align 8
  %79 = load i32, i32* %78, align 4
  %80 = call i32 (i8*, ...) @printf(i8* getelementptr inbounds ([4 x i8], [4 x i8]* @.str.1, i64 0, i64 0), i32 %79)
  br label %81

81:                                               ; preds = %77
  %82 = load i32*, i32** %2, align 8
  %83 = getelementptr inbounds i32, i32* %82, i32 1
  store i32* %83, i32** %2, align 8
  br label %70

84:                                               ; preds = %70
  ret void
}

declare dso_local i32 @__isoc99_scanf(i8*, ...) #1

declare dso_local i32 @printf(i8*, ...) #1


!llvm.module.flags = !{!0}
!llvm.ident = !{!1}

!0 = !{i32 1, !"wchar_size", i32 4}
!1 = !{!"clang version 10.0.0-4ubuntu1 "}
